; Function Attrs: mustprogress nofree norecurse nosync nounwind willreturn memory(read, inaccessiblemem: none) uwtable
define { ptr, i32 } @_ZNK10OpenSubdiv6v3_6_03Far10PatchTable28GetPatchArrayVaryingVerticesEi(ptr nocapture noundef nonnull readonly align 8 dereferenceable(273) %0, i32 noundef %1) local_unnamed_addr #6 align 2 {
  %3 = getelementptr inbounds nuw i8, ptr %0, i64 152
  %4 = load ptr, ptr %3, align 8
  %5 = getelementptr inbounds i8, ptr %0, i64 160
  %6 = load ptr, ptr %5, align 8
  %7 = icmp eq ptr %4, %6
  br i1 %7, label %25, label %8

8:                                                ; preds = %2
  %9 = getelementptr inbounds nuw i8, ptr %0, i64 8
  %10 = sext i32 %1 to i64
  %11 = load ptr, ptr %9, align 8
  %12 = getelementptr inbounds %"struct.OpenSubdiv::v3_6_0::Far::PatchTable::PatchArray", ptr %11, i64 %10
  %13 = getelementptr inbounds nuw i8, ptr %0, i64 144
  %14 = load i32, ptr %13, align 8
  %switch.tableidx = add i32 %14, -1
  %15 = icmp ult i32 %switch.tableidx, 10
  br i1 %15, label %switch.lookup, label %_ZNK10OpenSubdiv6v3_6_03Far15PatchDescriptor21GetNumControlVerticesEv.exit

switch.lookup:                                    ; preds = %8
  %16 = zext nneg i32 %switch.tableidx to i64
  %switch.gep = getelementptr inbounds [10 x i32], ptr @switch.table._ZNK10OpenSubdiv6v3_6_03Far10PatchTable18GetPatchFVarValuesEiii.5, i64 0, i64 %16
  %switch.load = load i32, ptr %switch.gep, align 4
  br label %_ZNK10OpenSubdiv6v3_6_03Far15PatchDescriptor21GetNumControlVerticesEv.exit

_ZNK10OpenSubdiv6v3_6_03Far15PatchDescriptor21GetNumControlVerticesEv.exit: ; preds = %8, %switch.lookup
  %.0.i.i = phi i32 [ %switch.load, %switch.lookup ], [ -1, %8 ]
  %17 = getelementptr inbounds nuw i8, ptr %12, i64 12
  %18 = load i32, ptr %17, align 4
  %19 = mul nsw i32 %18, %.0.i.i
  %20 = getelementptr inbounds nuw i8, ptr %12, i64 4
  %21 = load i32, ptr %20, align 4
  %22 = mul nsw i32 %21, %.0.i.i
  %23 = sext i32 %19 to i64
  %24 = getelementptr inbounds i32, ptr %4, i64 %23
  br label %25

25:                                               ; preds = %2, %_ZNK10OpenSubdiv6v3_6_03Far15PatchDescriptor21GetNumControlVerticesEv.exit
  %.sroa.3.0 = phi i32 [ %22, %_ZNK10OpenSubdiv6v3_6_03Far15PatchDescriptor21GetNumControlVerticesEv.exit ], [ 0, %2 ]
  %.sroa.0.0 = phi ptr [ %24, %_ZNK10OpenSubdiv6v3_6_03Far15PatchDescriptor21GetNumControlVerticesEv.exit ], [ null, %2 ]
  %.fca.0.insert = insertvalue { ptr, i32 } poison, ptr %.sroa.0.0, 0
  %.fca.1.insert = insertvalue { ptr, i32 } %.fca.0.insert, i32 %.sroa.3.0, 1
  ret { ptr, i32 } %.fca.1.insert
}